c__builtin__
set
p0
((lp1
(ithe_game.game_objects.static_curve
UserStaticCurve
p2
(dp3
S'body'
p4
NsS'smap'
p5
(dp6
sS'end'
p7
(F0.553125
F0.8275
tp8
sS'space'
p9
NsS'shapes'
p10
(lp11
sS'start'
p12
(F0.2859375
F0.5375
tp13
sS'points'
p14
(lp15
(F1719.0
F430.00000000000006
tp16
a(F1703.6129690878358
F440.8797727623072
tp17
a(F1692.261547672744
F452.52278136330426
tp18
a(F1684.9457357547246
F464.92902580299096
tp19
a(F1681.6655333337778
F478.0985060813676
tp20
a(F1682.4209404099029
F492.0312221984339
tp21
a(F1687.2119569831013
F506.72717415419027
tp22
a(F1696.0385830533714
F522.1863619486362
tp23
a(F1708.9008186207147
F538.4087855817722
tp24
a(F1725.7986636851301
F555.394445053598
tp25
a(F1746.732118246618
F573.1433403641136
tp26
a(F1771.701182305178
F591.6554715133188
tp27
a(F1800.705855860811
F610.9308385012141
tp28
a(F1833.746138913516
F630.9694413277992
tp29
a(F1890.0
F662.0
tp30
asS'context'
p31
NsS'thirdpt'
p32
(F0.0890625
F0.6325000000000001
tp33
sS'end_points'
p34
(tsS'physics_interface'
p35
NsS'render_obj'
p36
(tsS'before'
p37
I00
sba(ithe_game.game_objects.static_curve
UserStaticCurve
p38
(dp39
g4
Nsg5
(dp40
sg7
(F0.4296875
F0.88375
tp41
sg9
Nsg10
(lp42
sg12
(F0.0671875
F0.97625
tp43
sg14
(lp44
(F1579.0
F781.0
tp45
a(F1595.4959251334578
F750.0616488007655
tp46
a(F1612.3501095340623
F723.473588702594
tp47
a(F1629.5625532018128
F701.2358197054855
tp48
a(F1647.1332561367094
F683.3483418094402
tp49
a(F1665.062218338753
F669.8111550144577
tp50
a(F1683.3494398079429
F660.6242593205385
tp51
a(F1701.994920544279
F655.7876547276824
tp52
a(F1720.9986605477613
F655.3013412358891
tp53
a(F1740.3606598183903
F659.1653188451589
tp54
a(F1760.0809183561657
F667.3795875554916
tp55
a(F1780.1594361610871
F679.9441473668875
tp56
a(F1811.0
F707.0
tp57
asg31
Nsg32
(F0.2265625
F0.7175000000000001
tp58
sg34
(tsg35
Nsg36
(tsg37
I00
sba(ithe_game.game_objects.static_curve
UserStaticCurve
p59
(dp60
g4
Nsg5
(dp61
sg7
(F0.8125
F0.9299999999999999
tp62
sg9
Nsg10
(lp63
sg12
(F0.225
F0.3874999999999999
tp64
sg14
(lp65
(F1680.0
F310.0
tp66
a(F1717.3450009474357
F323.35145042890053
tp67
a(F1752.767517488852
F337.27163582791513
tp68
a(F1786.267549624249
F351.7605561970438
tp69
a(F1817.8450973536264
F366.8182115362865
tp70
a(F1847.500160676985
F382.4446018456433
tp71
a(F1875.232739594324
F398.6397271251143
tp72
a(F1901.0428341056431
F415.4035873746991
tp73
a(F1924.9304442109433
F432.7361825943981
tp74
a(F1946.8955699102241
F450.637512784211
tp75
a(F1966.9382112034853
F469.10757794413814
tp76
a(F1985.0583680907278
F488.1463780741793
tp77
a(F2001.2560405719505
F507.75391317433446
tp78
a(F2015.531228647154
F527.9301832446038
tp79
a(F2027.883932316338
F548.6751882849871
tp80
a(F2038.3141515795028
F569.9889282954845
tp81
a(F2046.821886436648
F591.8714032760959
tp82
a(F2053.407136887774
F614.3226132268213
tp83
a(F2058.0699029328803
F637.3425581476608
tp84
a(F2060.8101845719675
F660.9312380386147
tp85
a(F2061.6279818050357
F685.0886528996823
tp86
a(F2060.5232946320843
F709.814802730864
tp87
a(F2056.0
F744.0
tp88
asg31
Nsg32
(F0.89375
F0.5700000000000001
tp89
sg34
(tsg35
Nsg36
(tsg37
I00
sbatp90
Rp91
.