c__builtin__
set
p0
((lp1
(ithe_game.game_objects.static_line
UserStaticLine
p2
(dp3
S'body'
p4
NsS'smap'
p5
(dp6
sS'end'
p7
(F0.3890625
F0.7112499999999999
tp8
sS'space'
p9
NsS'shapes'
p10
(lp11
sS'start'
p12
(F0.034375
F0.91375
tp13
sS'points'
p14
((F1558.0
F731.0
tp15
(F1785.0
F569.0
tp16
tp17
sS'context'
p18
NsS'thirdpt'
p19
(F0.21171875
F0.8125
tp20
sS'end_points'
p21
(tsS'physics_interface'
p22
NsS'render_obj'
p23
(tsS'before'
p24
I00
sbatp25
Rp26
.