c__builtin__
set
p0
((lp1
(ithe_game.game_objects.static_line
UserStaticLine
p2
(dp3
S'body'
p4
NsS'smap'
p5
(dp6
sS'end'
p7
(F0.3484375
F0.56625
tp8
sS'space'
p9
NsS'shapes'
p10
(lp11
sS'start'
p12
(F0.2484375
F0.8412499999999999
tp13
sS'points'
p14
((F1695.0
F673.0
tp15
(F1759.0
F453.00000000000006
tp16
tp17
sS'context'
p18
NsS'thirdpt'
p19
(F0.2984375
F0.70375
tp20
sS'end_points'
p21
(tsS'physics_interface'
p22
NsS'render_obj'
p23
(tsS'before'
p24
I00
sba(ithe_game.game_objects.static_curve
UserStaticCurve
p25
(dp26
g4
Nsg5
(dp27
sg7
(F0.553125
F0.8275
tp28
sg9
Nsg10
(lp29
sg12
(F0.2859375
F0.5375
tp30
sg14
(lp31
(F1719.0
F430.00000000000006
tp32
a(F1703.6129690878358
F440.8797727623072
tp33
a(F1692.261547672744
F452.52278136330426
tp34
a(F1684.9457357547246
F464.92902580299096
tp35
a(F1681.6655333337778
F478.0985060813676
tp36
a(F1682.4209404099029
F492.0312221984339
tp37
a(F1687.2119569831013
F506.72717415419027
tp38
a(F1696.0385830533714
F522.1863619486362
tp39
a(F1708.9008186207147
F538.4087855817722
tp40
a(F1725.7986636851301
F555.394445053598
tp41
a(F1746.732118246618
F573.1433403641136
tp42
a(F1771.701182305178
F591.6554715133188
tp43
a(F1800.705855860811
F610.9308385012141
tp44
a(F1833.746138913516
F630.9694413277992
tp45
a(F1890.0
F662.0
tp46
asg18
Nsg19
(F0.0890625
F0.6325000000000001
tp47
sg21
(tsg22
Nsg23
(tsg24
I00
sba(ithe_game.game_objects.static_line
UserStaticLine
p48
(dp49
g4
Nsg5
(dp50
sg7
(F0.2109375
F1.0175
tp51
sg9
Nsg10
(lp52
sg12
(F0.2125
F0.8937499999999999
tp53
sg14
((F1672.0
F715.0
tp54
(F1671.0
F814.0
tp55
tp56
sg18
Nsg19
(F0.21171875
F0.955625
tp57
sg21
(tsg22
Nsg23
(tsg24
I00
sba(ithe_game.game_objects.static_line
UserStaticLine
p58
(dp59
g4
Nsg5
(dp60
sg7
(F0.38125
F0.5237499999999999
tp61
sg9
Nsg10
(lp62
sg12
(F0.7015625
F0.46124999999999994
tp63
sg14
((F1985.0
F369.0
tp64
(F1780.0
F419.0
tp65
tp66
sg18
Nsg19
(F0.54140625
F0.49249999999999994
tp67
sg21
(tsg22
Nsg23
(tsg24
I00
sba(ithe_game.game_objects.static_line
UserStaticLine
p68
(dp69
g4
Nsg5
(dp70
sg7
(F0.1453125
F0.74625
tp71
sg9
Nsg10
(lp72
sg12
(F0.1078125
F0.43999999999999995
tp73
sg14
((F1605.0
F352.0
tp74
(F1629.0
F597.0
tp75
tp76
sg18
Nsg19
(F0.1265625
F0.5931249999999999
tp77
sg21
(tsg22
Nsg23
(tsg24
I00
sba(ithe_game.game_objects.static_line
UserStaticLine
p78
(dp79
g4
Nsg5
(dp80
sg7
(F0.5125
F0.74
tp81
sg9
Nsg10
(lp82
sg12
(F0.4140625
F0.9075
tp83
sg14
((F1801.0
F726.0
tp84
(F1864.0
F592.0
tp85
tp86
sg18
Nsg19
(F0.46328125
F0.82375
tp87
sg21
(tsg22
Nsg23
(tsg24
I00
sba(ithe_game.game_objects.static_curve
UserStaticCurve
p88
(dp89
g4
Nsg5
(dp90
sg7
(F0.8125
F0.9299999999999999
tp91
sg9
Nsg10
(lp92
sg12
(F0.225
F0.3874999999999999
tp93
sg14
(lp94
(F1680.0
F310.0
tp95
a(F1717.3450009474357
F323.35145042890053
tp96
a(F1752.767517488852
F337.27163582791513
tp97
a(F1786.267549624249
F351.7605561970438
tp98
a(F1817.8450973536264
F366.8182115362865
tp99
a(F1847.500160676985
F382.4446018456433
tp100
a(F1875.232739594324
F398.6397271251143
tp101
a(F1901.0428341056431
F415.4035873746991
tp102
a(F1924.9304442109433
F432.7361825943981
tp103
a(F1946.8955699102241
F450.637512784211
tp104
a(F1966.9382112034853
F469.10757794413814
tp105
a(F1985.0583680907278
F488.1463780741793
tp106
a(F2001.2560405719505
F507.75391317433446
tp107
a(F2015.531228647154
F527.9301832446038
tp108
a(F2027.883932316338
F548.6751882849871
tp109
a(F2038.3141515795028
F569.9889282954845
tp110
a(F2046.821886436648
F591.8714032760959
tp111
a(F2053.407136887774
F614.3226132268213
tp112
a(F2058.0699029328803
F637.3425581476608
tp113
a(F2060.8101845719675
F660.9312380386147
tp114
a(F2061.6279818050357
F685.0886528996823
tp115
a(F2060.5232946320843
F709.814802730864
tp116
a(F2056.0
F744.0
tp117
asg18
Nsg19
(F0.89375
F0.5700000000000001
tp118
sg21
(tsg22
Nsg23
(tsg24
I00
sbatp119
Rp120
.