c__builtin__
set
p0
((lp1
(ithe_game.game_objects.static_curve
UserStaticCurve
p2
(dp3
S'body'
p4
NsS'smap'
p5
(dp6
sS'end'
p7
(F0.403125
F0.605
tp8
sS'space'
p9
NsS'shapes'
p10
(lp11
sS'start'
p12
(F0.3171875
F0.6074999999999999
tp13
sS'points'
p14
(lp15
(F1739.0
F486.0
tp16
a(F1739.974463119592
F457.4482268448418
tp17
a(F1742.4257170885503
F436.47545578454134
tp18
a(F1746.3537619068734
F423.08168681909814
tp19
a(F1751.7585975745626
F417.2669199485124
tp20
a(F1758.6402240916168
F419.03115517278405
tp21
a(F1766.9986414580371
F428.3743924919132
tp22
a(F1776.833849673823
F445.2966319058998
tp23
a(F1794.0
F484.00000000000006
tp24
asS'context'
p25
NsS'thirdpt'
p26
(F0.31875
F0.43624999999999997
tp27
sS'end_points'
p28
(tsS'physics_interface'
p29
NsS'render_obj'
p30
(tsS'before'
p31
I00
sba(ithe_game.game_objects.static_line
UserStaticLine
p32
(dp33
g4
Nsg5
(dp34
sg7
(F0.0875
F0.7237500000000001
tp35
sg9
Nsg10
(lp36
sg12
(F0.1265625
F0.5674999999999999
tp37
sg14
((F1617.0
F453.99999999999994
tp38
(F1592.0
F579.0000000000001
tp39
tp40
sg25
Nsg26
(F0.10703125
F0.645625
tp41
sg28
(tsg29
Nsg30
(tsg31
I00
sba(ithe_game.game_objects.static_line
UserStaticLine
p42
(dp43
g4
Nsg5
(dp44
sg7
(F0.5640625
F0.4987499999999999
tp45
sg9
Nsg10
(lp46
sg12
(F0.571875
F0.725
tp47
sg14
((F1902.0
F580.0
tp48
(F1897.0
F399.0
tp49
tp50
sg25
Nsg26
(F0.56796875
F0.611875
tp51
sg28
(tsg29
Nsg30
(tsg31
I00
sba(ithe_game.game_objects.static_line
UserStaticLine
p52
(dp53
g4
Nsg5
(dp54
sg7
(F0.0890625
F0.7250000000000001
tp55
sg9
Nsg10
(lp56
sg12
(F0.2171875
F0.71
tp57
sg14
((F1675.0
F568.0
tp58
(F1593.0
F580.0000000000001
tp59
tp60
sg25
Nsg26
(F0.16171875
F0.705
tp61
sg28
(tsg29
Nsg30
(tsg31
I00
sba(ithe_game.game_objects.static_line
UserStaticLine
p62
(dp63
g4
Nsg5
(dp64
sg7
(F0.578125
F0.56
tp65
sg9
Nsg10
(lp66
sg12
(F0.6421875
F0.6337499999999999
tp67
sg14
((F1947.0
F507.0
tp68
(F1906.0
F448.0000000000001
tp69
tp70
sg25
Nsg26
(F0.61015625
F0.5968749999999999
tp71
sg28
(tsg29
Nsg30
(tsg31
I00
sba(ithe_game.game_objects.static_line
UserStaticLine
p72
(dp73
g4
Nsg5
(dp74
sg7
(F0.121875
F0.6087499999999999
tp75
sg9
Nsg10
(lp76
sg12
(F0.259375
F0.6
tp77
sg14
((F1702.0
F480.0
tp78
(F1614.0
F486.99999999999994
tp79
tp80
sg25
Nsg26
(F0.190625
F0.604375
tp81
sg28
(tsg29
Nsg30
(tsg31
I00
sba(ithe_game.game_objects.static_line
UserStaticLine
p82
(dp83
g4
Nsg5
(dp84
sg7
(F0.5671875
F0.5587500000000001
tp85
sg9
Nsg10
(lp86
sg12
(F0.6546875
F0.4962499999999999
tp87
sg14
((F1955.0
F397.0
tp88
(F1899.0
F447.0000000000001
tp89
tp90
sg25
Nsg26
(F0.6109375
F0.5275
tp91
sg28
(tsg29
Nsg30
(tsg31
I00
sba(ithe_game.game_objects.static_line
UserStaticLine
p92
(dp93
g4
Nsg5
(dp94
sg7
(F0.3890625
F0.7112499999999999
tp95
sg9
Nsg10
(lp96
sg12
(F0.034375
F0.91375
tp97
sg14
((F1558.0
F731.0
tp98
(F1785.0
F569.0
tp99
tp100
sg25
Nsg26
(F0.21171875
F0.8125
tp101
sg28
(tsg29
Nsg30
(tsg31
I00
sba(ithe_game.game_objects.static_curve
UserStaticCurve
p102
(dp103
g4
Nsg5
(dp104
sg7
(F0.50625
F0.545
tp105
sg9
Nsg10
(lp106
sg12
(F0.49375
F0.615
tp107
sg14
(lp108
(F1852.0
F492.00000000000006
tp109
a(F1835.0199827108788
F465.8366358695035
tp110
a(F1831.8370482433031
F447.83889218441135
tp111
a(F1860.0
F436.00000000000006
tp112
asg25
Nsg26
(F0.4234375
F0.54375
tp113
sg28
(tsg29
Nsg30
(tsg31
I00
sbatp114
Rp115
.