c__builtin__
set
p0
((lp1
(ithe_game.game_objects.static_line
UserStaticLine
p2
(dp3
S'body'
p4
NsS'smap'
p5
(dp6
sS'end'
p7
(F0.20625
F0.47874999999999995
tp8
sS'space'
p9
NsS'shapes'
p10
(lp11
sS'start'
p12
(F0.5671875
F0.5037499999999999
tp13
sS'points'
p14
((F1899.0
F403.0
tp15
(F1668.0
F383.0
tp16
tp17
sS'context'
p18
NsS'thirdpt'
p19
(F0.38671875
F0.4912499999999999
tp20
sS'end_points'
p21
(tsS'physics_interface'
p22
NsS'render_obj'
p23
(tsS'before'
p24
I00
sba(ithe_game.game_objects.static_line
UserStaticLine
p25
(dp26
g4
Nsg5
(dp27
sg7
(F0.25625
F0.855
tp28
sg9
Nsg10
(lp29
sg12
(F0.165625
F0.72
tp30
sg14
((F1642.0
F576.0
tp31
(F1700.0
F684.0
tp32
tp33
sg18
Nsg19
(F0.2109375
F0.7875
tp34
sg21
(tsg22
Nsg23
(tsg24
I00
sba(ithe_game.game_objects.static_line
UserStaticLine
p35
(dp36
g4
Nsg5
(dp37
sg7
(F0.2171875
F1.00125
tp38
sg9
Nsg10
(lp39
sg12
(F0.0359375
F1.0175
tp40
sg14
((F1559.0
F814.0
tp41
(F1675.0
F801.0
tp42
tp43
sg18
Nsg19
(F0.1265625
F1.009375
tp44
sg21
(tsg22
Nsg23
(tsg24
I00
sba(ithe_game.game_objects.static_line
UserStaticLine
p45
(dp46
g4
Nsg5
(dp47
sg7
(F0.3453125
F0.67875
tp48
sg9
Nsg10
(lp49
sg12
(F0.215625
F0.47874999999999995
tp50
sg14
((F1674.0
F383.0
tp51
(F1757.0
F543.0
tp52
tp53
sg18
Nsg19
(F0.28046875
F0.57875
tp54
sg21
(tsg22
Nsg23
(tsg24
I00
sba(ithe_game.game_objects.static_line
UserStaticLine
p55
(dp56
g4
Nsg5
(dp57
sg7
(F0.1703125
F0.71875
tp58
sg9
Nsg10
(lp59
sg12
(F0.35
F0.68375
tp60
sg14
((F1760.0
F547.0
tp61
(F1645.0
F575.0
tp62
tp63
sg18
Nsg19
(F0.26015625
F0.7012499999999999
tp64
sg21
(tsg22
Nsg23
(tsg24
I00
sba(ithe_game.game_objects.static_line
UserStaticLine
p65
(dp66
g4
Nsg5
(dp67
sg7
(F0.1109375
F0.925
tp68
sg9
Nsg10
(lp69
sg12
(F0.2609375
F0.85375
tp70
sg14
((F1703.0
F683.0
tp71
(F1607.0
F740.0
tp72
tp73
sg18
Nsg19
(F0.1859375
F0.889375
tp74
sg21
(tsg22
Nsg23
(tsg24
I00
sba(ithe_game.game_objects.static_line
UserStaticLine
p75
(dp76
g4
Nsg5
(dp77
sg7
(F0.21875
F1.0025
tp78
sg9
Nsg10
(lp79
sg12
(F0.1109375
F0.92375
tp80
sg14
((F1607.0
F739.0
tp81
(F1676.0
F802.0
tp82
tp83
sg18
Nsg19
(F0.16484375
F0.963125
tp84
sg21
(tsg22
Nsg23
(tsg24
I00
sbatp85
Rp86
.